target datalayout = "e-m:e-p270:32:32-p271:32:32-p272:64:64-i64:64-i128:128-f80:128-n8:16:32:64-S128"
target triple = "x86_64-pc-linux-gnu"

%struct.FunctionCallInfoBaseData = type { ptr, ptr, ptr, i32, i8, i16, [0 x %struct.NullableDatum] }
%struct.NullableDatum = type { i64, i8 }
%struct.FmgrInfo = type { ptr, i32, i16, i8, i8, i8, ptr, ptr, ptr }

@.str.2 = private unnamed_addr constant [10 x i8] c"pg_proc.c\00", align 1
@.str.27 = private unnamed_addr constant [36 x i8] c"cache lookup failed for function %u\00", align 1
@__func__.fmgr_internal_validator = private unnamed_addr constant [24 x i8] c"fmgr_internal_validator\00", align 1
@.str.28 = private unnamed_addr constant [41 x i8] c"there is no built-in function named \22%s\22\00", align 1

; Function Attrs: inlinehint nounwind uwtable
define internal ptr @DatumGetPointer(i64 noundef %0) #4 {
  %2 = alloca i64, align 8
  store i64 %0, ptr %2, align 8
  %3 = load i64, ptr %2, align 8
  %4 = inttoptr i64 %3 to ptr
  ret ptr %4
}

; Function Attrs: inlinehint nounwind uwtable
define internal i64 @ObjectIdGetDatum(i32 noundef %0) #4 {
  %2 = alloca i32, align 4
  store i32 %0, ptr %2, align 4
  %3 = load i32, ptr %2, align 4
  %4 = zext i32 %3 to i64
  ret i64 %4
}

; Function Attrs: inlinehint nounwind uwtable
define internal i32 @DatumGetObjectId(i64 noundef %0) #4 {
  %2 = alloca i64, align 8
  store i64 %0, ptr %2, align 8
  %3 = load i64, ptr %2, align 8
  %4 = trunc i64 %3 to i32
  ret i32 %4
}

; Function Attrs: nounwind uwtable
define dso_local i64 @fmgr_internal_validator(ptr noundef %0) #0 {
  %2 = alloca i64, align 8
  %3 = alloca ptr, align 8
  %4 = alloca i32, align 4
  %5 = alloca ptr, align 8
  %6 = alloca i64, align 8
  %7 = alloca ptr, align 8
  %8 = alloca i32, align 4
  store ptr %0, ptr %3, align 8
  call void @llvm.lifetime.start.p0(i64 4, ptr %4) #8
  %9 = load ptr, ptr %3, align 8
  %10 = getelementptr inbounds nuw %struct.FunctionCallInfoBaseData, ptr %9, i32 0, i32 6
  %11 = getelementptr inbounds [0 x %struct.NullableDatum], ptr %10, i64 0, i64 0
  %12 = getelementptr inbounds nuw %struct.NullableDatum, ptr %11, i32 0, i32 0
  %13 = load i64, ptr %12, align 8
  %14 = call i32 @DatumGetObjectId(i64 noundef %13)
  store i32 %14, ptr %4, align 4
  call void @llvm.lifetime.start.p0(i64 8, ptr %5) #8
  call void @llvm.lifetime.start.p0(i64 8, ptr %6) #8
  call void @llvm.lifetime.start.p0(i64 8, ptr %7) #8
  %15 = load ptr, ptr %3, align 8
  %16 = getelementptr inbounds nuw %struct.FunctionCallInfoBaseData, ptr %15, i32 0, i32 0
  %17 = load ptr, ptr %16, align 8
  %18 = getelementptr inbounds nuw %struct.FmgrInfo, ptr %17, i32 0, i32 1
  %19 = load i32, ptr %18, align 8
  %20 = load i32, ptr %4, align 4
  %21 = call zeroext i1 @CheckFunctionValidatorAccess(i32 noundef %19, i32 noundef %20)
  br i1 %21, label %23, label %22

22:                                               ; preds = %1
  store i64 0, ptr %2, align 8
  store i32 1, ptr %8, align 4
  br label %65

23:                                               ; preds = %1
  %24 = load i32, ptr %4, align 4
  %25 = call i64 @ObjectIdGetDatum(i32 noundef %24)
  %26 = call ptr @SearchSysCache1(i32 noundef 47, i64 noundef %25)
  store ptr %26, ptr %5, align 8
  %27 = load ptr, ptr %5, align 8
  %28 = icmp ne ptr %27, null
  br i1 %28, label %41, label %29

29:                                               ; preds = %23
  br label %30

30:                                               ; preds = %29
  br i1 true, label %31, label %33

31:                                               ; preds = %30
  %32 = call zeroext i1 @errstart_cold(i32 noundef 21, ptr noundef null) #9
  br i1 %32, label %35, label %38

33:                                               ; preds = %30
  %34 = call zeroext i1 @errstart(i32 noundef 21, ptr noundef null)
  br i1 %34, label %35, label %38

35:                                               ; preds = %33, %31
  %36 = load i32, ptr %4, align 4
  %37 = call i32 (ptr, ...) @errmsg_internal(ptr noundef @.str.27, i32 noundef %36)
  call void @errfinish(ptr noundef @.str.2, i32 noundef 742, ptr noundef @__func__.fmgr_internal_validator)
  br label %38

38:                                               ; preds = %35, %33, %31
  unreachable

39:                                               ; No predecessors!
  br label %40

40:                                               ; preds = %39
  br label %41

41:                                               ; preds = %40, %23
  %42 = load ptr, ptr %5, align 8
  %43 = call i64 @SysCacheGetAttrNotNull(i32 noundef 47, ptr noundef %42, i16 noundef signext 26)
  store i64 %43, ptr %6, align 8
  %44 = load i64, ptr %6, align 8
  %45 = call ptr @DatumGetPointer(i64 noundef %44)
  %46 = call ptr @text_to_cstring(ptr noundef %45)
  store ptr %46, ptr %7, align 8
  %47 = load ptr, ptr %7, align 8
  %48 = call i32 @fmgr_internal_function(ptr noundef %47)
  %49 = icmp eq i32 %48, 0
  br i1 %49, label %50, label %63

50:                                               ; preds = %41
  br label %51

51:                                               ; preds = %50
  br i1 true, label %52, label %54

52:                                               ; preds = %51
  %53 = call zeroext i1 @errstart_cold(i32 noundef 21, ptr noundef null) #9
  br i1 %53, label %56, label %60

54:                                               ; preds = %51
  %55 = call zeroext i1 @errstart(i32 noundef 21, ptr noundef null)
  br i1 %55, label %56, label %60

56:                                               ; preds = %54, %52
  %57 = call i32 @errcode(i32 noundef 52461700)
  %58 = load ptr, ptr %7, align 8
  %59 = call i32 (ptr, ...) @errmsg(ptr noundef @.str.28, ptr noundef %58)
  call void @errfinish(ptr noundef @.str.2, i32 noundef 751, ptr noundef @__func__.fmgr_internal_validator)
  br label %60

60:                                               ; preds = %56, %54, %52
  unreachable

61:                                               ; No predecessors!
  br label %62

62:                                               ; preds = %61
  br label %63

63:                                               ; preds = %62, %41
  %64 = load ptr, ptr %5, align 8
  call void @ReleaseSysCache(ptr noundef %64)
  store i64 0, ptr %2, align 8
  store i32 1, ptr %8, align 4
  br label %65

65:                                               ; preds = %63, %22
  call void @llvm.lifetime.end.p0(i64 8, ptr %7) #8
  call void @llvm.lifetime.end.p0(i64 8, ptr %6) #8
  call void @llvm.lifetime.end.p0(i64 8, ptr %5) #8
  call void @llvm.lifetime.end.p0(i64 4, ptr %4) #8
  %66 = load i64, ptr %2, align 8
  ret i64 %66
}