; Function Attrs: nounwind uwtable
define dso_local noundef i64 @fmgr_internal_validator(ptr noundef readonly captures(none) %0) local_unnamed_addr #0 {
  %2 = getelementptr inbounds nuw i8, ptr %0, i64 32
  %3 = load i64, ptr %2, align 8
  %4 = trunc i64 %3 to i32
  %5 = load ptr, ptr %0, align 8
  %6 = getelementptr inbounds nuw i8, ptr %5, i64 8
  %7 = load i32, ptr %6, align 8
  %8 = tail call zeroext i1 @CheckFunctionValidatorAccess(i32 noundef %7, i32 noundef %4) #7
  br i1 %8, label %9, label %26

9:                                                ; preds = %1
  %10 = and i64 %3, 4294967295
  %11 = tail call ptr @SearchSysCache1(i32 noundef 47, i64 noundef %10) #7
  %.not = icmp eq ptr %11, null
  br i1 %.not, label %12, label %15

12:                                               ; preds = %9
  %13 = tail call zeroext i1 @errstart_cold(i32 noundef 21, ptr noundef null) #8
  tail call void @llvm.assume(i1 %13)
  %14 = tail call i32 (ptr, ...) @errmsg_internal(ptr noundef nonnull @.str.27, i32 noundef %4) #7
  tail call void @errfinish(ptr noundef nonnull @.str.2, i32 noundef 742, ptr noundef nonnull @__func__.fmgr_internal_validator) #7
  unreachable

15:                                               ; preds = %9
  %16 = tail call i64 @SysCacheGetAttrNotNull(i32 noundef 47, ptr noundef nonnull %11, i16 noundef signext 26) #7
  %17 = inttoptr i64 %16 to ptr
  %18 = tail call ptr @text_to_cstring(ptr noundef %17) #7
  %19 = tail call i32 @fmgr_internal_function(ptr noundef %18) #7
  %20 = icmp eq i32 %19, 0
  br i1 %20, label %21, label %25

21:                                               ; preds = %15
  %22 = tail call zeroext i1 @errstart_cold(i32 noundef 21, ptr noundef null) #8
  tail call void @llvm.assume(i1 %22)
  %23 = tail call i32 @errcode(i32 noundef 52461700) #7
  %24 = tail call i32 (ptr, ...) @errmsg(ptr noundef nonnull @.str.28, ptr noundef %18) #7
  tail call void @errfinish(ptr noundef nonnull @.str.2, i32 noundef 751, ptr noundef nonnull @__func__.fmgr_internal_validator) #7
  unreachable

25:                                               ; preds = %15
  tail call void @ReleaseSysCache(ptr noundef nonnull %11) #7
  br label %26

26:                                               ; preds = %1, %25
  ret i64 0
}